target datalayout = "e-m:e-p270:32:32-p271:32:32-p272:64:64-i64:64-i128:128-f80:128-n8:16:32:64-S128"
target triple = "x86_64-pc-linux-gnu"

%struct.ssl_st = type { i32, i16, i16, ptr, ptr, ptr, ptr, ptr, i32, i32, ptr, ptr, i32, i32, ptr, ptr, ptr, ptr, ptr, ptr, ptr, ptr, i32, i32, [32 x i8], ptr, ptr, ptr, ptr, ptr, ptr, ptr, i64, %struct.crypto_ex_data_st, ptr, i32, i32, i32, i32, i16, ptr, i32, i64, ptr, ptr, ptr, ptr, ptr, ptr, i32, i32, ptr, ptr, i8, i8, i32 }
%struct.crypto_ex_data_st = type { ptr }
%struct.ssl_session_st = type { i32, i32, i32, i32, [48 x i8], i32, [32 x i8], i32, [32 x i8], ptr, ptr, ptr, i64, i64, i64, ptr, %struct.crypto_ex_data_st, ptr, ptr, ptr, ptr, i64, i64, ptr, i64, ptr, [32 x i8], [64 x i8], i32, i32, i8 }

@.str = private unnamed_addr constant [117 x i8] c"generated/home/dtcxzyw/WorkSpace/Projects/compilers/llvm-opt-benchmark/bench/libquic/libquic/boringssl/ssl/s3_clnt.c\00", align 1

; Function Attrs: nounwind uwtable
define hidden i32 @ssl3_verify_server_cert(ptr noundef %0) #0 {
  %2 = alloca ptr, align 8
  %3 = alloca i32, align 4
  %4 = alloca i32, align 4
  store ptr %0, ptr %2, align 8, !tbaa !6
  call void @llvm.lifetime.start.p0(i64 4, ptr %3) #8
  %5 = load ptr, ptr %2, align 8, !tbaa !6
  %6 = load ptr, ptr %2, align 8, !tbaa !6
  %7 = getelementptr inbounds nuw %struct.ssl_st, ptr %6, i32 0, i32 25
  %8 = load ptr, ptr %7, align 8, !tbaa !86
  %9 = getelementptr inbounds nuw %struct.ssl_session_st, ptr %8, i32 0, i32 11
  %10 = load ptr, ptr %9, align 8, !tbaa !136
  %11 = call i32 @ssl_verify_cert_chain(ptr noundef %5, ptr noundef %10)
  store i32 %11, ptr %3, align 4, !tbaa !14
  %12 = load ptr, ptr %2, align 8, !tbaa !6
  %13 = getelementptr inbounds nuw %struct.ssl_st, ptr %12, i32 0, i32 53
  %14 = load i8, ptr %13, align 8, !tbaa !140
  %15 = zext i8 %14 to i32
  %16 = icmp ne i32 %15, 0
  br i1 %16, label %17, label %28

17:                                               ; preds = %1
  %18 = load i32, ptr %3, align 4, !tbaa !14
  %19 = icmp sle i32 %18, 0
  br i1 %19, label %20, label %28

20:                                               ; preds = %17
  call void @llvm.lifetime.start.p0(i64 4, ptr %4) #8
  %21 = load ptr, ptr %2, align 8, !tbaa !6
  %22 = getelementptr inbounds nuw %struct.ssl_st, ptr %21, i32 0, i32 32
  %23 = load i64, ptr %22, align 8, !tbaa !138
  %24 = call i32 @ssl_verify_alarm_type(i64 noundef %23)
  store i32 %24, ptr %4, align 4, !tbaa !14
  %25 = load ptr, ptr %2, align 8, !tbaa !6
  %26 = load i32, ptr %4, align 4, !tbaa !14
  %27 = call i32 @ssl3_send_alert(ptr noundef %25, i32 noundef 2, i32 noundef %26)
  call void @ERR_put_error(i32 noundef 16, i32 noundef 0, i32 noundef 125, ptr noundef @.str, i32 noundef 2059)
  call void @llvm.lifetime.end.p0(i64 4, ptr %4) #8
  br label %29

28:                                               ; preds = %17, %1
  store i32 1, ptr %3, align 4, !tbaa !14
  call void @ERR_clear_error()
  br label %29

29:                                               ; preds = %28, %20
  %30 = load i32, ptr %3, align 4, !tbaa !14
  call void @llvm.lifetime.end.p0(i64 4, ptr %3) #8
  ret i32 %30
}