; Function Attrs: nounwind uwtable
define hidden range(i32 -2147483648, 2) i32 @ssl3_verify_server_cert(ptr noundef %0) local_unnamed_addr #0 {
  %2 = getelementptr inbounds nuw i8, ptr %0, i64 184
  %3 = load ptr, ptr %2, align 8, !tbaa !64
  %4 = getelementptr inbounds nuw i8, ptr %3, i64 152
  %5 = load ptr, ptr %4, align 8, !tbaa !65
  %6 = tail call i32 @ssl_verify_cert_chain(ptr noundef %0, ptr noundef %5) #11
  %7 = getelementptr inbounds nuw i8, ptr %0, i64 384
  %8 = load i8, ptr %7, align 8, !tbaa !68
  %9 = icmp ne i8 %8, 0
  %10 = icmp slt i32 %6, 1
  %or.cond = select i1 %9, i1 %10, i1 false
  br i1 %or.cond, label %11, label %16

11:                                               ; preds = %1
  %12 = getelementptr inbounds nuw i8, ptr %0, i64 240
  %13 = load i64, ptr %12, align 8, !tbaa !69
  %14 = tail call i32 @ssl_verify_alarm_type(i64 noundef %13) #11
  %15 = tail call i32 @ssl3_send_alert(ptr noundef nonnull %0, i32 noundef 2, i32 noundef %14) #11
  tail call void @ERR_put_error(i32 noundef 16, i32 noundef 0, i32 noundef 125, ptr noundef nonnull @.str, i32 noundef 2059) #11
  br label %17

16:                                               ; preds = %1
  tail call void @ERR_clear_error() #11
  br label %17

17:                                               ; preds = %16, %11
  %.0 = phi i32 [ %6, %11 ], [ 1, %16 ]
  ret i32 %.0
}